target datalayout = "e-m:e-p270:32:32-p271:32:32-p272:64:64-i64:64-i128:128-f80:128-n8:16:32:64-S128"
target triple = "x86_64-pc-linux-gnu"

; Function Attrs: mustprogress nounwind uwtable
define noundef zeroext i1 @_ZNK4LIEF5MachO14RelocationDyldltERKS1_(ptr noundef nonnull align 8 dereferenceable(56) %0, ptr noundef nonnull align 8 dereferenceable(56) %1) #0 align 2 {
  %3 = alloca i1, align 1
  %4 = alloca ptr, align 8
  %5 = alloca ptr, align 8
  store ptr %0, ptr %4, align 8, !tbaa !3
  store ptr %1, ptr %5, align 8, !tbaa !3
  %6 = load ptr, ptr %4, align 8
  %7 = load ptr, ptr %6, align 8, !tbaa !8
  %8 = getelementptr inbounds ptr, ptr %7, i64 15
  %9 = load ptr, ptr %8, align 8
  %10 = call noundef zeroext i8 %9(ptr noundef nonnull align 8 dereferenceable(56) %6)
  %11 = zext i8 %10 to i32
  %12 = load ptr, ptr %5, align 8, !tbaa !3
  %13 = load ptr, ptr %12, align 8, !tbaa !8
  %14 = getelementptr inbounds ptr, ptr %13, i64 15
  %15 = load ptr, ptr %14, align 8
  %16 = call noundef zeroext i8 %15(ptr noundef nonnull align 8 dereferenceable(56) %12)
  %17 = zext i8 %16 to i32
  %18 = icmp ne i32 %11, %17
  br i1 %18, label %19, label %32

19:                                               ; preds = %2
  %20 = load ptr, ptr %6, align 8, !tbaa !8
  %21 = getelementptr inbounds ptr, ptr %20, i64 15
  %22 = load ptr, ptr %21, align 8
  %23 = call noundef zeroext i8 %22(ptr noundef nonnull align 8 dereferenceable(56) %6)
  %24 = zext i8 %23 to i32
  %25 = load ptr, ptr %5, align 8, !tbaa !3
  %26 = load ptr, ptr %25, align 8, !tbaa !8
  %27 = getelementptr inbounds ptr, ptr %26, i64 15
  %28 = load ptr, ptr %27, align 8
  %29 = call noundef zeroext i8 %28(ptr noundef nonnull align 8 dereferenceable(56) %25)
  %30 = zext i8 %29 to i32
  %31 = icmp slt i32 %24, %30
  store i1 %31, ptr %3, align 1
  br label %43

32:                                               ; preds = %2
  %33 = load ptr, ptr %6, align 8, !tbaa !8
  %34 = getelementptr inbounds ptr, ptr %33, i64 5
  %35 = load ptr, ptr %34, align 8
  %36 = call noundef i64 %35(ptr noundef nonnull align 8 dereferenceable(17) %6)
  %37 = load ptr, ptr %5, align 8, !tbaa !3
  %38 = load ptr, ptr %37, align 8, !tbaa !8
  %39 = getelementptr inbounds ptr, ptr %38, i64 5
  %40 = load ptr, ptr %39, align 8
  %41 = call noundef i64 %40(ptr noundef nonnull align 8 dereferenceable(17) %37)
  %42 = icmp ult i64 %36, %41
  store i1 %42, ptr %3, align 1
  br label %43

43:                                               ; preds = %32, %19
  %44 = load i1, ptr %3, align 1
  ret i1 %44
}